target datalayout = "e-m:e-p270:32:32-p271:32:32-p272:64:64-i64:64-i128:128-f80:128-n8:16:32:64-S128"
target triple = "x86_64-pc-linux-gnu"

%struct.Amap_Nod_t_ = type { i32, i16, i16, i16, i16, ptr }
%struct.Vec_Int_t_ = type { i32, i32, ptr }
%struct.Amap_Lib_t_ = type { ptr, ptr, ptr, ptr, ptr, ptr, ptr, ptr, ptr, i32, i32, i32, ptr, i32, i32, ptr, ptr, ptr, ptr, ptr, ptr, i32 }

; Function Attrs: inlinehint nounwind uwtable
define internal void @Vec_IntGrow(ptr noundef %0, i32 noundef %1) #2 {
  %3 = alloca ptr, align 8
  %4 = alloca i32, align 4
  store ptr %0, ptr %3, align 8, !tbaa !10
  store i32 %1, ptr %4, align 4, !tbaa !18
  %5 = load ptr, ptr %3, align 8, !tbaa !10
  %6 = getelementptr inbounds nuw %struct.Vec_Int_t_, ptr %5, i32 0, i32 0
  %7 = load i32, ptr %6, align 8, !tbaa !22
  %8 = load i32, ptr %4, align 4, !tbaa !18
  %9 = icmp sge i32 %7, %8
  br i1 %9, label %10, label %11

10:                                               ; preds = %2
  br label %36

11:                                               ; preds = %2
  %12 = load ptr, ptr %3, align 8, !tbaa !10
  %13 = getelementptr inbounds nuw %struct.Vec_Int_t_, ptr %12, i32 0, i32 2
  %14 = load ptr, ptr %13, align 8, !tbaa !23
  %15 = icmp ne ptr %14, null
  br i1 %15, label %16, label %24

16:                                               ; preds = %11
  %17 = load ptr, ptr %3, align 8, !tbaa !10
  %18 = getelementptr inbounds nuw %struct.Vec_Int_t_, ptr %17, i32 0, i32 2
  %19 = load ptr, ptr %18, align 8, !tbaa !23
  %20 = load i32, ptr %4, align 4, !tbaa !18
  %21 = sext i32 %20 to i64
  %22 = mul i64 4, %21
  %23 = call ptr @realloc(ptr noundef %19, i64 noundef %22) #10
  br label %29

24:                                               ; preds = %11
  %25 = load i32, ptr %4, align 4, !tbaa !18
  %26 = sext i32 %25 to i64
  %27 = mul i64 4, %26
  %28 = call noalias ptr @malloc(i64 noundef %27) #9
  br label %29

29:                                               ; preds = %24, %16
  %30 = phi ptr [ %23, %16 ], [ %28, %24 ]
  %31 = load ptr, ptr %3, align 8, !tbaa !10
  %32 = getelementptr inbounds nuw %struct.Vec_Int_t_, ptr %31, i32 0, i32 2
  store ptr %30, ptr %32, align 8, !tbaa !23
  %33 = load i32, ptr %4, align 4, !tbaa !18
  %34 = load ptr, ptr %3, align 8, !tbaa !10
  %35 = getelementptr inbounds nuw %struct.Vec_Int_t_, ptr %34, i32 0, i32 0
  store i32 %33, ptr %35, align 8, !tbaa !22
  br label %36

36:                                               ; preds = %29, %10
  ret void
}

; Function Attrs: inlinehint nounwind uwtable
define internal i32 @Abc_LitIsCompl(i32 noundef %0) #2 {
  %2 = alloca i32, align 4
  store i32 %0, ptr %2, align 4, !tbaa !18
  %3 = load i32, ptr %2, align 4, !tbaa !18
  %4 = and i32 %3, 1
  ret i32 %4
}

; Function Attrs: inlinehint nounwind uwtable
define internal ptr @Amap_LibNod(ptr noundef %0, i32 noundef %1) #2 {
  %3 = alloca ptr, align 8
  %4 = alloca i32, align 4
  store ptr %0, ptr %3, align 8, !tbaa !3
  store i32 %1, ptr %4, align 4, !tbaa !18
  %5 = load ptr, ptr %3, align 8, !tbaa !3
  %6 = getelementptr inbounds nuw %struct.Amap_Lib_t_, ptr %5, i32 0, i32 12
  %7 = load ptr, ptr %6, align 8, !tbaa !24
  %8 = load i32, ptr %4, align 4, !tbaa !18
  %9 = sext i32 %8 to i64
  %10 = getelementptr inbounds %struct.Amap_Nod_t_, ptr %7, i64 %9
  ret ptr %10
}

; Function Attrs: inlinehint nounwind uwtable
define internal i32 @Abc_Lit2Var(i32 noundef %0) #2 {
  %2 = alloca i32, align 4
  store i32 %0, ptr %2, align 4, !tbaa !18
  %3 = load i32, ptr %2, align 4, !tbaa !18
  %4 = ashr i32 %3, 1
  ret i32 %4
}

; Function Attrs: inlinehint nounwind uwtable
define internal void @Vec_IntPush(ptr noundef %0, i32 noundef %1) #2 {
  %3 = alloca ptr, align 8
  %4 = alloca i32, align 4
  store ptr %0, ptr %3, align 8, !tbaa !10
  store i32 %1, ptr %4, align 4, !tbaa !18
  %5 = load ptr, ptr %3, align 8, !tbaa !10
  %6 = getelementptr inbounds nuw %struct.Vec_Int_t_, ptr %5, i32 0, i32 1
  %7 = load i32, ptr %6, align 4, !tbaa !19
  %8 = load ptr, ptr %3, align 8, !tbaa !10
  %9 = getelementptr inbounds nuw %struct.Vec_Int_t_, ptr %8, i32 0, i32 0
  %10 = load i32, ptr %9, align 8, !tbaa !22
  %11 = icmp eq i32 %7, %10
  br i1 %11, label %12, label %26

12:                                               ; preds = %2
  %13 = load ptr, ptr %3, align 8, !tbaa !10
  %14 = getelementptr inbounds nuw %struct.Vec_Int_t_, ptr %13, i32 0, i32 0
  %15 = load i32, ptr %14, align 8, !tbaa !22
  %16 = icmp slt i32 %15, 16
  br i1 %16, label %17, label %19

17:                                               ; preds = %12
  %18 = load ptr, ptr %3, align 8, !tbaa !10
  call void @Vec_IntGrow(ptr noundef %18, i32 noundef 16)
  br label %25

19:                                               ; preds = %12
  %20 = load ptr, ptr %3, align 8, !tbaa !10
  %21 = load ptr, ptr %3, align 8, !tbaa !10
  %22 = getelementptr inbounds nuw %struct.Vec_Int_t_, ptr %21, i32 0, i32 0
  %23 = load i32, ptr %22, align 8, !tbaa !22
  %24 = mul nsw i32 2, %23
  call void @Vec_IntGrow(ptr noundef %20, i32 noundef %24)
  br label %25

25:                                               ; preds = %19, %17
  br label %26

26:                                               ; preds = %25, %2
  %27 = load i32, ptr %4, align 4, !tbaa !18
  %28 = load ptr, ptr %3, align 8, !tbaa !10
  %29 = getelementptr inbounds nuw %struct.Vec_Int_t_, ptr %28, i32 0, i32 2
  %30 = load ptr, ptr %29, align 8, !tbaa !23
  %31 = load ptr, ptr %3, align 8, !tbaa !10
  %32 = getelementptr inbounds nuw %struct.Vec_Int_t_, ptr %31, i32 0, i32 1
  %33 = load i32, ptr %32, align 4, !tbaa !19
  %34 = add nsw i32 %33, 1
  store i32 %34, ptr %32, align 4, !tbaa !19
  %35 = sext i32 %33 to i64
  %36 = getelementptr inbounds i32, ptr %30, i64 %35
  store i32 %27, ptr %36, align 4, !tbaa !18
  ret void
}

; Function Attrs: nounwind uwtable
define void @Amap_LibCollectFanins_rec(ptr noundef %0, ptr noundef %1, ptr noundef %2) #0 {
  %4 = alloca ptr, align 8
  %5 = alloca ptr, align 8
  %6 = alloca ptr, align 8
  %7 = alloca ptr, align 8
  %8 = alloca ptr, align 8
  %9 = alloca i32, align 4
  store ptr %0, ptr %4, align 8, !tbaa !3
  store ptr %1, ptr %5, align 8, !tbaa !8
  store ptr %2, ptr %6, align 8, !tbaa !10
  call void @llvm.lifetime.start.p0(i64 8, ptr %7) #8
  call void @llvm.lifetime.start.p0(i64 8, ptr %8) #8
  %10 = load ptr, ptr %5, align 8, !tbaa !8
  %11 = load i32, ptr %10, align 8
  %12 = and i32 %11, 65535
  %13 = icmp eq i32 %12, 0
  br i1 %13, label %14, label %16

14:                                               ; preds = %3
  %15 = load ptr, ptr %6, align 8, !tbaa !10
  call void @Vec_IntPush(ptr noundef %15, i32 noundef 0)
  store i32 1, ptr %9, align 4
  br label %81

16:                                               ; preds = %3
  %17 = load ptr, ptr %4, align 8, !tbaa !3
  %18 = load ptr, ptr %5, align 8, !tbaa !8
  %19 = getelementptr inbounds nuw %struct.Amap_Nod_t_, ptr %18, i32 0, i32 1
  %20 = load i16, ptr %19, align 4, !tbaa !12
  %21 = sext i16 %20 to i32
  %22 = call i32 @Abc_Lit2Var(i32 noundef %21)
  %23 = call ptr @Amap_LibNod(ptr noundef %17, i32 noundef %22)
  store ptr %23, ptr %7, align 8, !tbaa !8
  %24 = load ptr, ptr %5, align 8, !tbaa !8
  %25 = getelementptr inbounds nuw %struct.Amap_Nod_t_, ptr %24, i32 0, i32 1
  %26 = load i16, ptr %25, align 4, !tbaa !12
  %27 = sext i16 %26 to i32
  %28 = call i32 @Abc_LitIsCompl(i32 noundef %27)
  %29 = icmp ne i32 %28, 0
  br i1 %29, label %38, label %30

30:                                               ; preds = %16
  %31 = load ptr, ptr %7, align 8, !tbaa !8
  %32 = load i32, ptr %31, align 8
  %33 = lshr i32 %32, 24
  %34 = load ptr, ptr %5, align 8, !tbaa !8
  %35 = load i32, ptr %34, align 8
  %36 = lshr i32 %35, 24
  %37 = icmp ne i32 %33, %36
  br i1 %37, label %38, label %44

38:                                               ; preds = %30, %16
  %39 = load ptr, ptr %6, align 8, !tbaa !10
  %40 = load ptr, ptr %5, align 8, !tbaa !8
  %41 = getelementptr inbounds nuw %struct.Amap_Nod_t_, ptr %40, i32 0, i32 1
  %42 = load i16, ptr %41, align 4, !tbaa !12
  %43 = sext i16 %42 to i32
  call void @Vec_IntPush(ptr noundef %39, i32 noundef %43)
  br label %48

44:                                               ; preds = %30
  %45 = load ptr, ptr %4, align 8, !tbaa !3
  %46 = load ptr, ptr %7, align 8, !tbaa !8
  %47 = load ptr, ptr %6, align 8, !tbaa !10
  call void @Amap_LibCollectFanins_rec(ptr noundef %45, ptr noundef %46, ptr noundef %47)
  br label %48

48:                                               ; preds = %44, %38
  %49 = load ptr, ptr %4, align 8, !tbaa !3
  %50 = load ptr, ptr %5, align 8, !tbaa !8
  %51 = getelementptr inbounds nuw %struct.Amap_Nod_t_, ptr %50, i32 0, i32 2
  %52 = load i16, ptr %51, align 2, !tbaa !17
  %53 = sext i16 %52 to i32
  %54 = call i32 @Abc_Lit2Var(i32 noundef %53)
  %55 = call ptr @Amap_LibNod(ptr noundef %49, i32 noundef %54)
  store ptr %55, ptr %8, align 8, !tbaa !8
  %56 = load ptr, ptr %5, align 8, !tbaa !8
  %57 = getelementptr inbounds nuw %struct.Amap_Nod_t_, ptr %56, i32 0, i32 2
  %58 = load i16, ptr %57, align 2, !tbaa !17
  %59 = sext i16 %58 to i32
  %60 = call i32 @Abc_LitIsCompl(i32 noundef %59)
  %61 = icmp ne i32 %60, 0
  br i1 %61, label %70, label %62

62:                                               ; preds = %48
  %63 = load ptr, ptr %8, align 8, !tbaa !8
  %64 = load i32, ptr %63, align 8
  %65 = lshr i32 %64, 24
  %66 = load ptr, ptr %5, align 8, !tbaa !8
  %67 = load i32, ptr %66, align 8
  %68 = lshr i32 %67, 24
  %69 = icmp ne i32 %65, %68
  br i1 %69, label %70, label %76

70:                                               ; preds = %62, %48
  %71 = load ptr, ptr %6, align 8, !tbaa !10
  %72 = load ptr, ptr %5, align 8, !tbaa !8
  %73 = getelementptr inbounds nuw %struct.Amap_Nod_t_, ptr %72, i32 0, i32 2
  %74 = load i16, ptr %73, align 2, !tbaa !17
  %75 = sext i16 %74 to i32
  call void @Vec_IntPush(ptr noundef %71, i32 noundef %75)
  br label %80

76:                                               ; preds = %62
  %77 = load ptr, ptr %4, align 8, !tbaa !3
  %78 = load ptr, ptr %8, align 8, !tbaa !8
  %79 = load ptr, ptr %6, align 8, !tbaa !10
  call void @Amap_LibCollectFanins_rec(ptr noundef %77, ptr noundef %78, ptr noundef %79)
  br label %80

80:                                               ; preds = %76, %70
  store i32 0, ptr %9, align 4
  br label %81

81:                                               ; preds = %80, %14
  call void @llvm.lifetime.end.p0(i64 8, ptr %8) #8
  call void @llvm.lifetime.end.p0(i64 8, ptr %7) #8
  %82 = load i32, ptr %9, align 4
  switch i32 %82, label %84 [
    i32 0, label %83
    i32 1, label %83
  ]

83:                                               ; preds = %81, %81
  ret void

84:                                               ; preds = %81
  unreachable
}