; Function Attrs: nounwind uwtable
define void @Amap_LibCollectFanins_rec(ptr noundef readonly captures(none) %0, ptr noundef readonly captures(none) %1, ptr noundef captures(none) %2) local_unnamed_addr #0 {
  %4 = getelementptr i8, ptr %0, i64 88
  %5 = getelementptr inbounds nuw i8, ptr %2, i64 4
  %.phi.trans.insert.i27 = getelementptr inbounds nuw i8, ptr %2, i64 8
  %.pre = load i32, ptr %1, align 8
  br label %tailrecurse

tailrecurse:                                      ; preds = %78, %3
  %6 = phi i32 [ %.pre, %3 ], [ %82, %78 ]
  %.tr40 = phi ptr [ %1, %3 ], [ %81, %78 ]
  %7 = and i32 %6, 65535
  %8 = icmp eq i32 %7, 0
  br i1 %8, label %9, label %33

9:                                                ; preds = %tailrecurse
  %10 = load i32, ptr %5, align 4, !tbaa !3
  %11 = load i32, ptr %2, align 8, !tbaa !10
  %12 = icmp eq i32 %10, %11
  br i1 %12, label %13, label %.Vec_IntGrow.exit10_crit_edge.i

.Vec_IntGrow.exit10_crit_edge.i:                  ; preds = %9
  %.pre.i = load ptr, ptr %.phi.trans.insert.i27, align 8, !tbaa !11
  br label %Vec_IntPush.exit

13:                                               ; preds = %9
  %14 = icmp slt i32 %10, 16
  br i1 %14, label %15, label %22

15:                                               ; preds = %13
  %16 = load ptr, ptr %.phi.trans.insert.i27, align 8, !tbaa !11
  %.not9.i.i = icmp eq ptr %16, null
  br i1 %.not9.i.i, label %19, label %17

17:                                               ; preds = %15
  %18 = tail call dereferenceable_or_null(64) ptr @realloc(ptr noundef nonnull %16, i64 noundef 64) #9
  br label %Vec_IntGrow.exit.i

19:                                               ; preds = %15
  %20 = tail call noalias dereferenceable_or_null(64) ptr @malloc(i64 noundef 64) #10
  br label %Vec_IntGrow.exit.i

Vec_IntGrow.exit.i:                               ; preds = %19, %17
  %21 = phi ptr [ %18, %17 ], [ %20, %19 ]
  store ptr %21, ptr %.phi.trans.insert.i27, align 8, !tbaa !11
  store i32 16, ptr %2, align 8, !tbaa !10
  br label %Vec_IntPush.exit

22:                                               ; preds = %13
  %23 = shl nuw nsw i32 %10, 1
  %24 = load ptr, ptr %.phi.trans.insert.i27, align 8, !tbaa !11
  %.not9.i9.i = icmp eq ptr %24, null
  %25 = zext nneg i32 %23 to i64
  %26 = shl nuw nsw i64 %25, 2
  br i1 %.not9.i9.i, label %29, label %27

27:                                               ; preds = %22
  %28 = tail call ptr @realloc(ptr noundef nonnull %24, i64 noundef %26) #9
  br label %31

29:                                               ; preds = %22
  %30 = tail call noalias ptr @malloc(i64 noundef %26) #10
  br label %31

31:                                               ; preds = %29, %27
  %32 = phi ptr [ %28, %27 ], [ %30, %29 ]
  store ptr %32, ptr %.phi.trans.insert.i27, align 8, !tbaa !11
  store i32 %23, ptr %2, align 8, !tbaa !10
  br label %Vec_IntPush.exit

33:                                               ; preds = %tailrecurse
  %34 = getelementptr inbounds nuw i8, ptr %.tr40, i64 4
  %35 = load i16, ptr %34, align 4, !tbaa !12
  %36 = sext i16 %35 to i32
  %37 = ashr i32 %36, 1
  %.val = load ptr, ptr %4, align 8, !tbaa !16
  %38 = sext i32 %37 to i64
  %39 = getelementptr inbounds %struct.Amap_Nod_t_, ptr %.val, i64 %38
  %40 = and i16 %35, 1
  %.not = icmp eq i16 %40, 0
  br i1 %.not, label %41, label %43

41:                                               ; preds = %33
  %42 = load i32, ptr %39, align 8
  %.not22.unshifted = xor i32 %42, %6
  %.not22 = icmp ult i32 %.not22.unshifted, 16777216
  br i1 %.not22, label %72, label %43

43:                                               ; preds = %41, %33
  %44 = load i32, ptr %5, align 4, !tbaa !3
  %45 = load i32, ptr %2, align 8, !tbaa !10
  %46 = icmp eq i32 %44, %45
  br i1 %46, label %47, label %.Vec_IntGrow.exit10_crit_edge.i26

.Vec_IntGrow.exit10_crit_edge.i26:                ; preds = %43
  %.pre.i28 = load ptr, ptr %.phi.trans.insert.i27, align 8, !tbaa !11
  br label %Vec_IntPush.exit32

47:                                               ; preds = %43
  %48 = icmp slt i32 %44, 16
  br i1 %48, label %49, label %56

49:                                               ; preds = %47
  %50 = load ptr, ptr %.phi.trans.insert.i27, align 8, !tbaa !11
  %.not9.i.i30 = icmp eq ptr %50, null
  br i1 %.not9.i.i30, label %53, label %51

51:                                               ; preds = %49
  %52 = tail call dereferenceable_or_null(64) ptr @realloc(ptr noundef nonnull %50, i64 noundef 64) #9
  br label %Vec_IntGrow.exit.i31

53:                                               ; preds = %49
  %54 = tail call noalias dereferenceable_or_null(64) ptr @malloc(i64 noundef 64) #10
  br label %Vec_IntGrow.exit.i31

Vec_IntGrow.exit.i31:                             ; preds = %53, %51
  %55 = phi ptr [ %52, %51 ], [ %54, %53 ]
  store ptr %55, ptr %.phi.trans.insert.i27, align 8, !tbaa !11
  store i32 16, ptr %2, align 8, !tbaa !10
  br label %Vec_IntPush.exit32

56:                                               ; preds = %47
  %57 = shl nuw nsw i32 %44, 1
  %58 = load ptr, ptr %.phi.trans.insert.i27, align 8, !tbaa !11
  %.not9.i9.i29 = icmp eq ptr %58, null
  %59 = zext nneg i32 %57 to i64
  %60 = shl nuw nsw i64 %59, 2
  br i1 %.not9.i9.i29, label %63, label %61

61:                                               ; preds = %56
  %62 = tail call ptr @realloc(ptr noundef nonnull %58, i64 noundef %60) #9
  br label %65

63:                                               ; preds = %56
  %64 = tail call noalias ptr @malloc(i64 noundef %60) #10
  br label %65

65:                                               ; preds = %63, %61
  %66 = phi ptr [ %62, %61 ], [ %64, %63 ]
  store ptr %66, ptr %.phi.trans.insert.i27, align 8, !tbaa !11
  store i32 %57, ptr %2, align 8, !tbaa !10
  br label %Vec_IntPush.exit32

Vec_IntPush.exit32:                               ; preds = %.Vec_IntGrow.exit10_crit_edge.i26, %Vec_IntGrow.exit.i31, %65
  %67 = phi ptr [ %.pre.i28, %.Vec_IntGrow.exit10_crit_edge.i26 ], [ %66, %65 ], [ %55, %Vec_IntGrow.exit.i31 ]
  %68 = load i32, ptr %5, align 4, !tbaa !3
  %69 = add nsw i32 %68, 1
  store i32 %69, ptr %5, align 4, !tbaa !3
  %70 = sext i32 %68 to i64
  %71 = getelementptr inbounds i32, ptr %67, i64 %70
  store i32 %36, ptr %71, align 4, !tbaa !25
  br label %73

72:                                               ; preds = %41
  tail call void @Amap_LibCollectFanins_rec(ptr noundef nonnull %0, ptr noundef nonnull %39, ptr noundef %2)
  br label %73

73:                                               ; preds = %72, %Vec_IntPush.exit32
  %74 = getelementptr inbounds nuw i8, ptr %.tr40, i64 6
  %75 = load i16, ptr %74, align 2, !tbaa !26
  %76 = sext i16 %75 to i32
  %77 = and i16 %75, 1
  %.not23 = icmp eq i16 %77, 0
  br i1 %.not23, label %78, label %84

78:                                               ; preds = %73
  %.val25 = load ptr, ptr %4, align 8, !tbaa !16
  %79 = ashr exact i32 %76, 1
  %80 = sext i32 %79 to i64
  %81 = getelementptr inbounds %struct.Amap_Nod_t_, ptr %.val25, i64 %80
  %82 = load i32, ptr %81, align 8
  %83 = load i32, ptr %.tr40, align 8
  %.not24.unshifted = xor i32 %83, %82
  %.not24 = icmp ult i32 %.not24.unshifted, 16777216
  br i1 %.not24, label %tailrecurse, label %84

84:                                               ; preds = %78, %73
  %85 = load i32, ptr %5, align 4, !tbaa !3
  %86 = load i32, ptr %2, align 8, !tbaa !10
  %87 = icmp eq i32 %85, %86
  br i1 %87, label %88, label %.Vec_IntGrow.exit10_crit_edge.i33

.Vec_IntGrow.exit10_crit_edge.i33:                ; preds = %84
  %.pre.i35 = load ptr, ptr %.phi.trans.insert.i27, align 8, !tbaa !11
  br label %Vec_IntPush.exit

88:                                               ; preds = %84
  %89 = icmp slt i32 %85, 16
  br i1 %89, label %90, label %97

90:                                               ; preds = %88
  %91 = load ptr, ptr %.phi.trans.insert.i27, align 8, !tbaa !11
  %.not9.i.i37 = icmp eq ptr %91, null
  br i1 %.not9.i.i37, label %94, label %92

92:                                               ; preds = %90
  %93 = tail call dereferenceable_or_null(64) ptr @realloc(ptr noundef nonnull %91, i64 noundef 64) #9
  br label %Vec_IntGrow.exit.i38

94:                                               ; preds = %90
  %95 = tail call noalias dereferenceable_or_null(64) ptr @malloc(i64 noundef 64) #10
  br label %Vec_IntGrow.exit.i38

Vec_IntGrow.exit.i38:                             ; preds = %94, %92
  %96 = phi ptr [ %93, %92 ], [ %95, %94 ]
  store ptr %96, ptr %.phi.trans.insert.i27, align 8, !tbaa !11
  store i32 16, ptr %2, align 8, !tbaa !10
  br label %Vec_IntPush.exit

97:                                               ; preds = %88
  %98 = shl nuw nsw i32 %85, 1
  %99 = load ptr, ptr %.phi.trans.insert.i27, align 8, !tbaa !11
  %.not9.i9.i36 = icmp eq ptr %99, null
  %100 = zext nneg i32 %98 to i64
  %101 = shl nuw nsw i64 %100, 2
  br i1 %.not9.i9.i36, label %104, label %102

102:                                              ; preds = %97
  %103 = tail call ptr @realloc(ptr noundef nonnull %99, i64 noundef %101) #9
  br label %106

104:                                              ; preds = %97
  %105 = tail call noalias ptr @malloc(i64 noundef %101) #10
  br label %106

106:                                              ; preds = %104, %102
  %107 = phi ptr [ %103, %102 ], [ %105, %104 ]
  store ptr %107, ptr %.phi.trans.insert.i27, align 8, !tbaa !11
  store i32 %98, ptr %2, align 8, !tbaa !10
  br label %Vec_IntPush.exit

Vec_IntPush.exit:                                 ; preds = %106, %Vec_IntGrow.exit.i38, %.Vec_IntGrow.exit10_crit_edge.i33, %31, %Vec_IntGrow.exit.i, %.Vec_IntGrow.exit10_crit_edge.i
  %.sink42 = phi ptr [ %.pre.i, %.Vec_IntGrow.exit10_crit_edge.i ], [ %32, %31 ], [ %21, %Vec_IntGrow.exit.i ], [ %.pre.i35, %.Vec_IntGrow.exit10_crit_edge.i33 ], [ %107, %106 ], [ %96, %Vec_IntGrow.exit.i38 ]
  %.lcssa.sink = phi i32 [ 0, %.Vec_IntGrow.exit10_crit_edge.i ], [ 0, %31 ], [ 0, %Vec_IntGrow.exit.i ], [ %76, %.Vec_IntGrow.exit10_crit_edge.i33 ], [ %76, %106 ], [ %76, %Vec_IntGrow.exit.i38 ]
  %108 = load i32, ptr %5, align 4, !tbaa !3
  %109 = add nsw i32 %108, 1
  store i32 %109, ptr %5, align 4, !tbaa !3
  %110 = sext i32 %108 to i64
  %111 = getelementptr inbounds i32, ptr %.sink42, i64 %110
  store i32 %.lcssa.sink, ptr %111, align 4, !tbaa !25
  ret void
}